; ModuleID = '21/1370.c'
source_filename = "21/1370.c"
target datalayout = "e-m:e-p270:32:32-p271:32:32-p272:64:64-i64:64-f80:128-n8:16:32:64-S128"
target triple = "x86_64-pc-linux-gnu"

@.str = private unnamed_addr constant [3 x i8] c"%d\00", align 1
@.str.1 = private unnamed_addr constant [6 x i8] c"%.0lf\00", align 1
@.str.2 = private unnamed_addr constant [12 x i8] c"%.0lf,%.0lf\00", align 1

; Function Attrs: noinline nounwind uwtable
define dso_local i32 @main() #0 {
  %1 = alloca i32, align 4
  %2 = alloca i32, align 4
  %3 = alloca i32, align 4
  %4 = alloca i32, align 4
  %5 = alloca [300 x i32], align 16
  %6 = alloca double, align 8
  %7 = alloca [300 x double], align 16
  %8 = alloca double, align 8
  store i32 0, i32* %1, align 4
  store i32 0, i32* %4, align 4
  store double 0.000000e+00, double* %6, align 8
  %9 = call i32 (i8*, ...) @__isoc99_scanf(i8* getelementptr inbounds ([3 x i8], [3 x i8]* @.str, i64 0, i64 0), i32* %2)
  store i32 0, i32* %3, align 4
  br label %10

10:                                               ; preds = %29, %0
  %11 = load i32, i32* %3, align 4
  %12 = load i32, i32* %2, align 4
  %13 = icmp slt i32 %11, %12
  br i1 %13, label %14, label %32

14:                                               ; preds = %10
  %15 = load i32, i32* %3, align 4
  %16 = sext i32 %15 to i64
  %17 = getelementptr inbounds [300 x i32], [300 x i32]* %5, i64 0, i64 %16
  %18 = call i32 (i8*, ...) @__isoc99_scanf(i8* getelementptr inbounds ([3 x i8], [3 x i8]* @.str, i64 0, i64 0), i32* %17)
  %19 = load i32, i32* %3, align 4
  %20 = sext i32 %19 to i64
  %21 = getelementptr inbounds [300 x i32], [300 x i32]* %5, i64 0, i64 %20
  %22 = load i32, i32* %21, align 4
  %23 = sitofp i32 %22 to double
  %24 = load i32, i32* %2, align 4
  %25 = sitofp i32 %24 to double
  %26 = fdiv double %23, %25
  %27 = load double, double* %6, align 8
  %28 = fadd double %27, %26
  store double %28, double* %6, align 8
  br label %29

29:                                               ; preds = %14
  %30 = load i32, i32* %3, align 4
  %31 = add nsw i32 %30, 1
  store i32 %31, i32* %3, align 4
  br label %10

32:                                               ; preds = %10
  store i32 0, i32* %3, align 4
  br label %33

33:                                               ; preds = %48, %32
  %34 = load i32, i32* %3, align 4
  %35 = load i32, i32* %2, align 4
  %36 = icmp slt i32 %34, %35
  br i1 %36, label %37, label %51

37:                                               ; preds = %33
  %38 = load i32, i32* %3, align 4
  %39 = sext i32 %38 to i64
  %40 = getelementptr inbounds [300 x i32], [300 x i32]* %5, i64 0, i64 %39
  %41 = load i32, i32* %40, align 4
  %42 = sitofp i32 %41 to double
  %43 = load double, double* %6, align 8
  %44 = fsub double %42, %43
  %45 = load i32, i32* %3, align 4
  %46 = sext i32 %45 to i64
  %47 = getelementptr inbounds [300 x double], [300 x double]* %7, i64 0, i64 %46
  store double %44, double* %47, align 8
  br label %48

48:                                               ; preds = %37
  %49 = load i32, i32* %3, align 4
  %50 = add nsw i32 %49, 1
  store i32 %50, i32* %3, align 4
  br label %33

51:                                               ; preds = %33
  %52 = load i32, i32* %2, align 4
  %53 = sub nsw i32 %52, 1
  store i32 %53, i32* %3, align 4
  br label %54

54:                                               ; preds = %96, %51
  %55 = load i32, i32* %3, align 4
  %56 = icmp sgt i32 %55, 0
  br i1 %56, label %57, label %99

57:                                               ; preds = %54
  store i32 0, i32* %4, align 4
  br label %58

58:                                               ; preds = %92, %57
  %59 = load i32, i32* %4, align 4
  %60 = load i32, i32* %3, align 4
  %61 = icmp slt i32 %59, %60
  br i1 %61, label %62, label %95

62:                                               ; preds = %58
  %63 = load i32, i32* %4, align 4
  %64 = sext i32 %63 to i64
  %65 = getelementptr inbounds [300 x double], [300 x double]* %7, i64 0, i64 %64
  %66 = load double, double* %65, align 8
  %67 = load i32, i32* %4, align 4
  %68 = add nsw i32 %67, 1
  %69 = sext i32 %68 to i64
  %70 = getelementptr inbounds [300 x double], [300 x double]* %7, i64 0, i64 %69
  %71 = load double, double* %70, align 8
  %72 = fcmp ogt double %66, %71
  br i1 %72, label %73, label %91

73:                                               ; preds = %62
  %74 = load i32, i32* %4, align 4
  %75 = add nsw i32 %74, 1
  %76 = sext i32 %75 to i64
  %77 = getelementptr inbounds [300 x double], [300 x double]* %7, i64 0, i64 %76
  %78 = load double, double* %77, align 8
  store double %78, double* %8, align 8
  %79 = load i32, i32* %4, align 4
  %80 = sext i32 %79 to i64
  %81 = getelementptr inbounds [300 x double], [300 x double]* %7, i64 0, i64 %80
  %82 = load double, double* %81, align 8
  %83 = load i32, i32* %4, align 4
  %84 = add nsw i32 %83, 1
  %85 = sext i32 %84 to i64
  %86 = getelementptr inbounds [300 x double], [300 x double]* %7, i64 0, i64 %85
  store double %82, double* %86, align 8
  %87 = load double, double* %8, align 8
  %88 = load i32, i32* %4, align 4
  %89 = sext i32 %88 to i64
  %90 = getelementptr inbounds [300 x double], [300 x double]* %7, i64 0, i64 %89
  store double %87, double* %90, align 8
  br label %91

91:                                               ; preds = %73, %62
  br label %92

92:                                               ; preds = %91
  %93 = load i32, i32* %4, align 4
  %94 = add nsw i32 %93, 1
  store i32 %94, i32* %4, align 4
  br label %58

95:                                               ; preds = %58
  br label %96

96:                                               ; preds = %95
  %97 = load i32, i32* %3, align 4
  %98 = add nsw i32 %97, -1
  store i32 %98, i32* %3, align 4
  br label %54

99:                                               ; preds = %54
  %100 = getelementptr inbounds [300 x double], [300 x double]* %7, i64 0, i64 0
  %101 = load double, double* %100, align 16
  %102 = load i32, i32* %2, align 4
  %103 = sub nsw i32 %102, 1
  %104 = sext i32 %103 to i64
  %105 = getelementptr inbounds [300 x double], [300 x double]* %7, i64 0, i64 %104
  %106 = load double, double* %105, align 8
  %107 = fadd double %101, %106
  %108 = fcmp ogt double %107, 0.000000e+00
  br i1 %108, label %109, label %118

109:                                              ; preds = %99
  %110 = load i32, i32* %2, align 4
  %111 = sub nsw i32 %110, 1
  %112 = sext i32 %111 to i64
  %113 = getelementptr inbounds [300 x double], [300 x double]* %7, i64 0, i64 %112
  %114 = load double, double* %113, align 8
  %115 = load double, double* %6, align 8
  %116 = fadd double %114, %115
  %117 = call i32 (i8*, ...) @printf(i8* getelementptr inbounds ([6 x i8], [6 x i8]* @.str.1, i64 0, i64 0), double %116)
  br label %148

118:                                              ; preds = %99
  %119 = getelementptr inbounds [300 x double], [300 x double]* %7, i64 0, i64 0
  %120 = load double, double* %119, align 16
  %121 = load i32, i32* %2, align 4
  %122 = sub nsw i32 %121, 1
  %123 = sext i32 %122 to i64
  %124 = getelementptr inbounds [300 x double], [300 x double]* %7, i64 0, i64 %123
  %125 = load double, double* %124, align 8
  %126 = fadd double %120, %125
  %127 = fcmp oeq double %126, 0.000000e+00
  br i1 %127, label %128, label %141

128:                                              ; preds = %118
  %129 = load double, double* %6, align 8
  %130 = getelementptr inbounds [300 x double], [300 x double]* %7, i64 0, i64 0
  %131 = load double, double* %130, align 16
  %132 = fadd double %129, %131
  %133 = load double, double* %6, align 8
  %134 = load i32, i32* %2, align 4
  %135 = sub nsw i32 %134, 1
  %136 = sext i32 %135 to i64
  %137 = getelementptr inbounds [300 x double], [300 x double]* %7, i64 0, i64 %136
  %138 = load double, double* %137, align 8
  %139 = fadd double %133, %138
  %140 = call i32 (i8*, ...) @printf(i8* getelementptr inbounds ([12 x i8], [12 x i8]* @.str.2, i64 0, i64 0), double %132, double %139)
  br label %147

141:                                              ; preds = %118
  %142 = load double, double* %6, align 8
  %143 = getelementptr inbounds [300 x double], [300 x double]* %7, i64 0, i64 0
  %144 = load double, double* %143, align 16
  %145 = fadd double %142, %144
  %146 = call i32 (i8*, ...) @printf(i8* getelementptr inbounds ([6 x i8], [6 x i8]* @.str.1, i64 0, i64 0), double %145)
  br label %147

147:                                              ; preds = %141, %128
  br label %148

148:                                              ; preds = %147, %109
  ret i32 0
}

declare dso_local i32 @__isoc99_scanf(i8*, ...) #1

declare dso_local i32 @printf(i8*, ...) #1


!llvm.module.flags = !{!0}
!llvm.ident = !{!1}

!0 = !{i32 1, !"wchar_size", i32 4}
!1 = !{!"clang version 10.0.0-4ubuntu1 "}
